target datalayout = "e-m:e-p270:32:32-p271:32:32-p272:64:64-i64:64-i128:128-f80:128-n8:16:32:64-S128"
target triple = "x86_64-pc-linux-gnu"

%struct.expert_field = type { i32, i32 }
%struct._packet_info = type { ptr, ptr, i32, i32, %struct.nstime_t, %struct.nstime_t, %struct.nstime_t, i8, ptr, ptr, ptr, ptr, %struct._address, %struct._address, %struct._address, %struct._address, %struct._address, %struct._address, i32, ptr, i8, [3 x i8], %struct.anon, i32, i32, i32, i32, ptr, i8, ptr, ptr, i16, i16, i32, i32, i16, i32, i32, ptr, ptr, ptr, i8, i8, i16, i16, i16, i32, i16, i16, ptr, ptr, ptr, ptr, ptr, i32, i32 }
%struct.nstime_t = type { i64, i32 }
%struct._address = type { i32, i32, ptr, ptr }
%struct.anon = type { i8, [3 x i8] }

@hf_isis_lsp_eis_neighbors_reserved = internal global i32 0, align 4
@hf_isis_lsp_eis_neighbors_es_neighbor_id = internal global i32 0, align 4
@hf_isis_lsp_eis_neighbors_is_neighbor_id = internal global i32 0, align 4
@.str.344 = private unnamed_addr constant [12 x i8] c"IS Neighbor\00", align 1
@hf_isis_lsp_eis_neighbors_default_metric = internal global i32 0, align 4
@hf_isis_lsp_eis_neighbors_delay_metric = internal global i32 0, align 4
@hf_isis_lsp_eis_neighbors_expense_metric = internal global i32 0, align 4
@hf_isis_lsp_eis_neighbors_error_metric = internal global i32 0, align 4
@hf_isis_lsp_eis_neighbors_default_metric_ie = internal global i32 0, align 4
@hf_isis_lsp_eis_neighbors_delay_metric_supported = internal global i32 0, align 4
@hf_isis_lsp_eis_neighbors_expense_metric_supported = internal global i32 0, align 4
@hf_isis_lsp_eis_neighbors_error_metric_supported = internal global i32 0, align 4
@hf_isis_lsp_eis_neighbors_delay_metric_ie = internal global i32 0, align 4
@hf_isis_lsp_eis_neighbors_expense_metric_ie = internal global i32 0, align 4
@hf_isis_lsp_eis_neighbors_error_metric_ie = internal global i32 0, align 4
@hf_isis_lsp_is_virtual = internal global i32 0, align 4
@ett_isis_lsp_clv_is_neighbors = internal global i32 0, align 4
@ei_isis_lsp_short_clv = internal global %struct.expert_field zeroinitializer, align 4
@.str.830 = private unnamed_addr constant [35 x i8] c"short E/IS reachability (%d vs %d)\00", align 1
@.str.831 = private unnamed_addr constant [12 x i8] c"ES Neighbor\00", align 1
@.str.832 = private unnamed_addr constant [5 x i8] c": %s\00", align 1

; Function Attrs: null_pointer_is_valid sspstrong uwtable
define internal void @dissect_lsp_eis_neighbors_clv_inner(ptr noundef %0, ptr noundef %1, ptr noundef %2, i32 noundef %3, i32 noundef %4, i32 noundef %5, i32 noundef %6, i32 noundef %7) #0 {
  %9 = alloca ptr, align 8
  %10 = alloca ptr, align 8
  %11 = alloca ptr, align 8
  %12 = alloca i32, align 4
  %13 = alloca i32, align 4
  %14 = alloca i32, align 4
  %15 = alloca i32, align 4
  %16 = alloca i32, align 4
  %17 = alloca ptr, align 8
  %18 = alloca ptr, align 8
  %19 = alloca i32, align 4
  %20 = alloca i32, align 4
  store ptr %0, ptr %9, align 8
  store ptr %1, ptr %10, align 8
  store ptr %2, ptr %11, align 8
  store i32 %3, ptr %12, align 4
  store i32 %4, ptr %13, align 4
  store i32 %5, ptr %14, align 4
  store i32 %6, ptr %15, align 4
  store i32 %7, ptr %16, align 4
  call void @llvm.lifetime.start.p0(i64 8, ptr %17) #4
  call void @llvm.lifetime.start.p0(i64 8, ptr %18) #4
  store ptr null, ptr %18, align 8
  call void @llvm.lifetime.start.p0(i64 4, ptr %19) #4
  %21 = load i32, ptr %16, align 4
  %22 = icmp ne i32 %21, 0
  br i1 %22, label %49, label %23

23:                                               ; preds = %8
  %24 = load i32, ptr %14, align 4
  %25 = add i32 %24, 1
  store i32 %25, ptr %14, align 4
  %26 = load ptr, ptr %11, align 8
  %27 = icmp ne ptr %26, null
  br i1 %27, label %28, label %44

28:                                               ; preds = %23
  %29 = load i32, ptr %15, align 4
  %30 = icmp ne i32 %29, 0
  br i1 %30, label %31, label %37

31:                                               ; preds = %28
  %32 = load ptr, ptr %11, align 8
  %33 = load i32, ptr @hf_isis_lsp_is_virtual, align 4
  %34 = load ptr, ptr %9, align 8
  %35 = load i32, ptr %12, align 4
  %36 = call ptr @proto_tree_add_item(ptr noundef %32, i32 noundef %33, ptr noundef %34, i32 noundef %35, i32 noundef 1, i32 noundef 0)
  br label %43

37:                                               ; preds = %28
  %38 = load ptr, ptr %11, align 8
  %39 = load i32, ptr @hf_isis_lsp_eis_neighbors_reserved, align 4
  %40 = load ptr, ptr %9, align 8
  %41 = load i32, ptr %12, align 4
  %42 = call ptr @proto_tree_add_item(ptr noundef %38, i32 noundef %39, ptr noundef %40, i32 noundef %41, i32 noundef 1, i32 noundef 0)
  br label %43

43:                                               ; preds = %37, %31
  br label %44

44:                                               ; preds = %43, %23
  %45 = load i32, ptr %12, align 4
  %46 = add i32 %45, 1
  store i32 %46, ptr %12, align 4
  %47 = load i32, ptr %13, align 4
  %48 = add i32 %47, -1
  store i32 %48, ptr %13, align 4
  br label %49

49:                                               ; preds = %44, %8
  %50 = load i32, ptr %14, align 4
  %51 = add i32 4, %50
  store i32 %51, ptr %19, align 4
  br label %52

52:                                               ; preds = %169, %49
  %53 = load i32, ptr %13, align 4
  %54 = icmp sgt i32 %53, 0
  br i1 %54, label %55, label %176

55:                                               ; preds = %52
  %56 = load i32, ptr %13, align 4
  %57 = load i32, ptr %19, align 4
  %58 = icmp slt i32 %56, %57
  br i1 %58, label %59, label %67

59:                                               ; preds = %55
  %60 = load ptr, ptr %11, align 8
  %61 = load ptr, ptr %10, align 8
  %62 = load ptr, ptr %9, align 8
  %63 = load i32, ptr %12, align 4
  %64 = load i32, ptr %13, align 4
  %65 = load i32, ptr %19, align 4
  %66 = call ptr (ptr, ptr, ptr, ptr, i32, i32, ptr, ...) @proto_tree_add_expert_format(ptr noundef %60, ptr noundef %61, ptr noundef @ei_isis_lsp_short_clv, ptr noundef %62, i32 noundef %63, i32 noundef -1, ptr noundef @.str.830, i32 noundef %64, i32 noundef %65)
  store i32 1, ptr %20, align 4
  br label %177

67:                                               ; preds = %55
  %68 = load ptr, ptr %11, align 8
  %69 = icmp ne ptr %68, null
  br i1 %69, label %70, label %169

70:                                               ; preds = %67
  %71 = load i32, ptr %16, align 4
  %72 = icmp ne i32 %71, 0
  br i1 %72, label %73, label %80

73:                                               ; preds = %70
  %74 = load ptr, ptr %11, align 8
  %75 = load ptr, ptr %9, align 8
  %76 = load i32, ptr %12, align 4
  %77 = load i32, ptr %19, align 4
  %78 = load i32, ptr @ett_isis_lsp_clv_is_neighbors, align 4
  %79 = call ptr @proto_tree_add_subtree(ptr noundef %74, ptr noundef %75, i32 noundef %76, i32 noundef %77, i32 noundef %78, ptr noundef %17, ptr noundef @.str.831)
  store ptr %79, ptr %18, align 8
  br label %87

80:                                               ; preds = %70
  %81 = load ptr, ptr %11, align 8
  %82 = load ptr, ptr %9, align 8
  %83 = load i32, ptr %12, align 4
  %84 = load i32, ptr %19, align 4
  %85 = load i32, ptr @ett_isis_lsp_clv_is_neighbors, align 4
  %86 = call ptr @proto_tree_add_subtree(ptr noundef %81, ptr noundef %82, i32 noundef %83, i32 noundef %84, i32 noundef %85, ptr noundef %17, ptr noundef @.str.344)
  store ptr %86, ptr %18, align 8
  br label %87

87:                                               ; preds = %80, %73
  %88 = load ptr, ptr %18, align 8
  %89 = load i32, ptr @hf_isis_lsp_eis_neighbors_default_metric, align 4
  %90 = load ptr, ptr %9, align 8
  %91 = load i32, ptr %12, align 4
  %92 = call ptr @proto_tree_add_item(ptr noundef %88, i32 noundef %89, ptr noundef %90, i32 noundef %91, i32 noundef 1, i32 noundef 0)
  %93 = load ptr, ptr %18, align 8
  %94 = load i32, ptr @hf_isis_lsp_eis_neighbors_default_metric_ie, align 4
  %95 = load ptr, ptr %9, align 8
  %96 = load i32, ptr %12, align 4
  %97 = call ptr @proto_tree_add_item(ptr noundef %93, i32 noundef %94, ptr noundef %95, i32 noundef %96, i32 noundef 1, i32 noundef 0)
  %98 = load ptr, ptr %18, align 8
  %99 = load i32, ptr @hf_isis_lsp_eis_neighbors_delay_metric, align 4
  %100 = load ptr, ptr %9, align 8
  %101 = load i32, ptr %12, align 4
  %102 = call ptr @proto_tree_add_item(ptr noundef %98, i32 noundef %99, ptr noundef %100, i32 noundef %101, i32 noundef 1, i32 noundef 0)
  %103 = load ptr, ptr %18, align 8
  %104 = load i32, ptr @hf_isis_lsp_eis_neighbors_delay_metric_supported, align 4
  %105 = load ptr, ptr %9, align 8
  %106 = load i32, ptr %12, align 4
  %107 = call ptr @proto_tree_add_item(ptr noundef %103, i32 noundef %104, ptr noundef %105, i32 noundef %106, i32 noundef 1, i32 noundef 0)
  %108 = load ptr, ptr %18, align 8
  %109 = load i32, ptr @hf_isis_lsp_eis_neighbors_delay_metric_ie, align 4
  %110 = load ptr, ptr %9, align 8
  %111 = load i32, ptr %12, align 4
  %112 = add i32 %111, 1
  %113 = call ptr @proto_tree_add_item(ptr noundef %108, i32 noundef %109, ptr noundef %110, i32 noundef %112, i32 noundef 1, i32 noundef 0)
  %114 = load ptr, ptr %18, align 8
  %115 = load i32, ptr @hf_isis_lsp_eis_neighbors_expense_metric, align 4
  %116 = load ptr, ptr %9, align 8
  %117 = load i32, ptr %12, align 4
  %118 = call ptr @proto_tree_add_item(ptr noundef %114, i32 noundef %115, ptr noundef %116, i32 noundef %117, i32 noundef 1, i32 noundef 0)
  %119 = load ptr, ptr %18, align 8
  %120 = load i32, ptr @hf_isis_lsp_eis_neighbors_expense_metric_supported, align 4
  %121 = load ptr, ptr %9, align 8
  %122 = load i32, ptr %12, align 4
  %123 = call ptr @proto_tree_add_item(ptr noundef %119, i32 noundef %120, ptr noundef %121, i32 noundef %122, i32 noundef 1, i32 noundef 0)
  %124 = load ptr, ptr %18, align 8
  %125 = load i32, ptr @hf_isis_lsp_eis_neighbors_expense_metric_ie, align 4
  %126 = load ptr, ptr %9, align 8
  %127 = load i32, ptr %12, align 4
  %128 = add i32 %127, 2
  %129 = call ptr @proto_tree_add_item(ptr noundef %124, i32 noundef %125, ptr noundef %126, i32 noundef %128, i32 noundef 1, i32 noundef 0)
  %130 = load ptr, ptr %18, align 8
  %131 = load i32, ptr @hf_isis_lsp_eis_neighbors_error_metric, align 4
  %132 = load ptr, ptr %9, align 8
  %133 = load i32, ptr %12, align 4
  %134 = call ptr @proto_tree_add_item(ptr noundef %130, i32 noundef %131, ptr noundef %132, i32 noundef %133, i32 noundef 1, i32 noundef 0)
  %135 = load ptr, ptr %18, align 8
  %136 = load i32, ptr @hf_isis_lsp_eis_neighbors_error_metric_supported, align 4
  %137 = load ptr, ptr %9, align 8
  %138 = load i32, ptr %12, align 4
  %139 = call ptr @proto_tree_add_item(ptr noundef %135, i32 noundef %136, ptr noundef %137, i32 noundef %138, i32 noundef 1, i32 noundef 0)
  %140 = load ptr, ptr %18, align 8
  %141 = load i32, ptr @hf_isis_lsp_eis_neighbors_error_metric_ie, align 4
  %142 = load ptr, ptr %9, align 8
  %143 = load i32, ptr %12, align 4
  %144 = add i32 %143, 3
  %145 = call ptr @proto_tree_add_item(ptr noundef %140, i32 noundef %141, ptr noundef %142, i32 noundef %144, i32 noundef 1, i32 noundef 0)
  %146 = load ptr, ptr %18, align 8
  %147 = load i32, ptr %16, align 4
  %148 = icmp ne i32 %147, 0
  br i1 %148, label %149, label %151

149:                                              ; preds = %87
  %150 = load i32, ptr @hf_isis_lsp_eis_neighbors_es_neighbor_id, align 4
  br label %153

151:                                              ; preds = %87
  %152 = load i32, ptr @hf_isis_lsp_eis_neighbors_is_neighbor_id, align 4
  br label %153

153:                                              ; preds = %151, %149
  %154 = phi i32 [ %150, %149 ], [ %152, %151 ]
  %155 = load ptr, ptr %9, align 8
  %156 = load i32, ptr %12, align 4
  %157 = add i32 %156, 4
  %158 = load i32, ptr %14, align 4
  %159 = call ptr @proto_tree_add_item(ptr noundef %146, i32 noundef %154, ptr noundef %155, i32 noundef %157, i32 noundef %158, i32 noundef 0)
  %160 = load ptr, ptr %17, align 8
  %161 = load ptr, ptr %10, align 8
  %162 = getelementptr inbounds nuw %struct._packet_info, ptr %161, i32 0, i32 51
  %163 = load ptr, ptr %162, align 8
  %164 = load ptr, ptr %9, align 8
  %165 = load i32, ptr %12, align 4
  %166 = add i32 %165, 4
  %167 = load i32, ptr %14, align 4
  %168 = call ptr @tvb_print_system_id(ptr noundef %163, ptr noundef %164, i32 noundef %166, i32 noundef %167)
  call void (ptr, ptr, ...) @proto_item_append_text(ptr noundef %160, ptr noundef @.str.832, ptr noundef %168)
  br label %169

169:                                              ; preds = %153, %67
  %170 = load i32, ptr %19, align 4
  %171 = load i32, ptr %12, align 4
  %172 = add i32 %171, %170
  store i32 %172, ptr %12, align 4
  %173 = load i32, ptr %19, align 4
  %174 = load i32, ptr %13, align 4
  %175 = sub i32 %174, %173
  store i32 %175, ptr %13, align 4
  br label %52, !llvm.loop !33

176:                                              ; preds = %52
  store i32 0, ptr %20, align 4
  br label %177

177:                                              ; preds = %176, %59
  call void @llvm.lifetime.end.p0(i64 4, ptr %19) #4
  call void @llvm.lifetime.end.p0(i64 8, ptr %18) #4
  call void @llvm.lifetime.end.p0(i64 8, ptr %17) #4
  %178 = load i32, ptr %20, align 4
  switch i32 %178, label %180 [
    i32 0, label %179
    i32 1, label %179
  ]

179:                                              ; preds = %177, %177
  ret void

180:                                              ; preds = %177
  unreachable
}