; Function Attrs: null_pointer_is_valid sspstrong uwtable
define internal fastcc void @dissect_lsp_eis_neighbors_clv_inner(ptr noundef %0, ptr noundef %1, ptr noundef %2, i32 noundef %3, i32 noundef %4, i32 noundef range(i32 0, 256) %5, i32 noundef range(i32 0, 2) %6, i32 noundef range(i32 0, 2) %7) unnamed_addr #0 {
  %9 = alloca ptr, align 8
  call void @llvm.lifetime.start.p0(i64 8, ptr nonnull %9) #3
  %.not = icmp eq i32 %7, 0
  br i1 %.not, label %10, label %17

10:                                               ; preds = %8
  %11 = add nuw nsw i32 %5, 1
  %.not85 = icmp eq ptr %2, null
  br i1 %.not85, label %14, label %.sink.split

.sink.split:                                      ; preds = %10
  %.not86 = icmp eq i32 %6, 0
  %hf_isis_lsp_eis_neighbors_reserved.val = load i32, ptr @hf_isis_lsp_eis_neighbors_reserved, align 4
  %hf_isis_lsp_is_virtual.val = load i32, ptr @hf_isis_lsp_is_virtual, align 4
  %12 = select i1 %.not86, i32 %hf_isis_lsp_eis_neighbors_reserved.val, i32 %hf_isis_lsp_is_virtual.val
  %13 = tail call ptr @proto_tree_add_item(ptr noundef nonnull %2, i32 noundef %12, ptr noundef %0, i32 noundef %3, i32 noundef 1, i32 noundef 0)
  br label %14

14:                                               ; preds = %.sink.split, %10
  %15 = add i32 %3, 1
  %16 = add i32 %4, -1
  br label %17

17:                                               ; preds = %14, %8
  %.080 = phi i32 [ %5, %8 ], [ %11, %14 ]
  %.078 = phi i32 [ %4, %8 ], [ %16, %14 ]
  %.0 = phi i32 [ %3, %8 ], [ %15, %14 ]
  %18 = add nuw nsw i32 %.080, 4
  %19 = icmp sgt i32 %.078, 0
  br i1 %19, label %.lr.ph, label %.loopexit

.lr.ph:                                           ; preds = %17
  %.not87 = icmp eq ptr %2, null
  %20 = getelementptr inbounds nuw i8, ptr %1, i64 408
  br i1 %.not87, label %.lr.ph.split.us, label %.lr.ph.split.preheader

.lr.ph.split.preheader:                           ; preds = %.lr.ph
  %.str.344..str.831 = select i1 %.not, ptr @.str.344, ptr @.str.831
  br label %.lr.ph.split

.lr.ph.split.us:                                  ; preds = %.lr.ph, %22
  %.191.us = phi i32 [ %23, %22 ], [ %.0, %.lr.ph ]
  %.17990.us = phi i32 [ %24, %22 ], [ %.078, %.lr.ph ]
  %21 = icmp slt i32 %.17990.us, %18
  br i1 %21, label %.split.us, label %22

22:                                               ; preds = %.lr.ph.split.us
  %23 = add i32 %.191.us, %18
  %24 = sub nsw i32 %.17990.us, %18
  %25 = icmp sgt i32 %24, 0
  br i1 %25, label %.lr.ph.split.us, label %.loopexit, !llvm.loop !35

.lr.ph.split:                                     ; preds = %.lr.ph.split.preheader, %28
  %.191 = phi i32 [ %64, %28 ], [ %.0, %.lr.ph.split.preheader ]
  %.17990 = phi i32 [ %65, %28 ], [ %.078, %.lr.ph.split.preheader ]
  %26 = icmp slt i32 %.17990, %18
  br i1 %26, label %.split.us, label %28

.split.us:                                        ; preds = %.lr.ph.split, %.lr.ph.split.us
  %.us-phi = phi i32 [ %.17990.us, %.lr.ph.split.us ], [ %.17990, %.lr.ph.split ]
  %.us-phi93 = phi i32 [ %.191.us, %.lr.ph.split.us ], [ %.191, %.lr.ph.split ]
  %27 = call ptr (ptr, ptr, ptr, ptr, i32, i32, ptr, ...) @proto_tree_add_expert_format(ptr noundef %2, ptr noundef %1, ptr noundef nonnull @ei_isis_lsp_short_clv, ptr noundef %0, i32 noundef %.us-phi93, i32 noundef -1, ptr noundef nonnull @.str.830, i32 noundef %.us-phi, i32 noundef %18)
  br label %.loopexit

28:                                               ; preds = %.lr.ph.split
  %29 = load i32, ptr @ett_isis_lsp_clv_is_neighbors, align 4
  %30 = call ptr @proto_tree_add_subtree(ptr noundef nonnull %2, ptr noundef %0, i32 noundef %.191, i32 noundef %18, i32 noundef %29, ptr noundef nonnull %9, ptr noundef nonnull %.str.344..str.831)
  %31 = load i32, ptr @hf_isis_lsp_eis_neighbors_default_metric, align 4
  %32 = call ptr @proto_tree_add_item(ptr noundef %30, i32 noundef %31, ptr noundef %0, i32 noundef %.191, i32 noundef 1, i32 noundef 0)
  %33 = load i32, ptr @hf_isis_lsp_eis_neighbors_default_metric_ie, align 4
  %34 = call ptr @proto_tree_add_item(ptr noundef %30, i32 noundef %33, ptr noundef %0, i32 noundef %.191, i32 noundef 1, i32 noundef 0)
  %35 = load i32, ptr @hf_isis_lsp_eis_neighbors_delay_metric, align 4
  %36 = call ptr @proto_tree_add_item(ptr noundef %30, i32 noundef %35, ptr noundef %0, i32 noundef %.191, i32 noundef 1, i32 noundef 0)
  %37 = load i32, ptr @hf_isis_lsp_eis_neighbors_delay_metric_supported, align 4
  %38 = call ptr @proto_tree_add_item(ptr noundef %30, i32 noundef %37, ptr noundef %0, i32 noundef %.191, i32 noundef 1, i32 noundef 0)
  %39 = load i32, ptr @hf_isis_lsp_eis_neighbors_delay_metric_ie, align 4
  %40 = add i32 %.191, 1
  %41 = call ptr @proto_tree_add_item(ptr noundef %30, i32 noundef %39, ptr noundef %0, i32 noundef %40, i32 noundef 1, i32 noundef 0)
  %42 = load i32, ptr @hf_isis_lsp_eis_neighbors_expense_metric, align 4
  %43 = call ptr @proto_tree_add_item(ptr noundef %30, i32 noundef %42, ptr noundef %0, i32 noundef %.191, i32 noundef 1, i32 noundef 0)
  %44 = load i32, ptr @hf_isis_lsp_eis_neighbors_expense_metric_supported, align 4
  %45 = call ptr @proto_tree_add_item(ptr noundef %30, i32 noundef %44, ptr noundef %0, i32 noundef %.191, i32 noundef 1, i32 noundef 0)
  %46 = load i32, ptr @hf_isis_lsp_eis_neighbors_expense_metric_ie, align 4
  %47 = add i32 %.191, 2
  %48 = call ptr @proto_tree_add_item(ptr noundef %30, i32 noundef %46, ptr noundef %0, i32 noundef %47, i32 noundef 1, i32 noundef 0)
  %49 = load i32, ptr @hf_isis_lsp_eis_neighbors_error_metric, align 4
  %50 = call ptr @proto_tree_add_item(ptr noundef %30, i32 noundef %49, ptr noundef %0, i32 noundef %.191, i32 noundef 1, i32 noundef 0)
  %51 = load i32, ptr @hf_isis_lsp_eis_neighbors_error_metric_supported, align 4
  %52 = call ptr @proto_tree_add_item(ptr noundef %30, i32 noundef %51, ptr noundef %0, i32 noundef %.191, i32 noundef 1, i32 noundef 0)
  %53 = load i32, ptr @hf_isis_lsp_eis_neighbors_error_metric_ie, align 4
  %54 = add i32 %.191, 3
  %55 = call ptr @proto_tree_add_item(ptr noundef %30, i32 noundef %53, ptr noundef %0, i32 noundef %54, i32 noundef 1, i32 noundef 0)
  %56 = load i32, ptr @hf_isis_lsp_eis_neighbors_es_neighbor_id, align 4
  %57 = load i32, ptr @hf_isis_lsp_eis_neighbors_is_neighbor_id, align 4
  %58 = select i1 %.not, i32 %57, i32 %56
  %59 = add i32 %.191, 4
  %60 = call ptr @proto_tree_add_item(ptr noundef %30, i32 noundef %58, ptr noundef %0, i32 noundef %59, i32 noundef %.080, i32 noundef 0)
  %61 = load ptr, ptr %9, align 8
  %62 = load ptr, ptr %20, align 8
  %63 = call ptr @tvb_print_system_id(ptr noundef %62, ptr noundef %0, i32 noundef %59, i32 noundef %.080)
  call void (ptr, ptr, ...) @proto_item_append_text(ptr noundef %61, ptr noundef nonnull @.str.832, ptr noundef %63)
  %64 = add i32 %.191, %18
  %65 = sub nsw i32 %.17990, %18
  %66 = icmp sgt i32 %65, 0
  br i1 %66, label %.lr.ph.split, label %.loopexit, !llvm.loop !35

.loopexit:                                        ; preds = %28, %22, %17, %.split.us
  call void @llvm.lifetime.end.p0(i64 8, ptr nonnull %9) #3
  ret void
}